target datalayout = "e-m:e-p270:32:32-p271:32:32-p272:64:64-i64:64-i128:128-f80:128-n8:16:32:64-S128"
target triple = "x86_64-pc-linux-gnu"

%struct.noise_args_data_st = type { ptr, ptr, ptr, i32 }
%struct.PACKET = type { ptr, i64 }

; Function Attrs: inlinehint nounwind uwtable
define internal i32 @PACKET_buf_init(ptr noundef %0, ptr noundef %1, i64 noundef %2) #5 {
  %4 = alloca i32, align 4
  %5 = alloca ptr, align 8
  %6 = alloca ptr, align 8
  %7 = alloca i64, align 8
  store ptr %0, ptr %5, align 8, !tbaa !56
  store ptr %1, ptr %6, align 8, !tbaa !11
  store i64 %2, ptr %7, align 8, !tbaa !62
  %8 = load i64, ptr %7, align 8, !tbaa !62
  %9 = icmp ugt i64 %8, 9223372036854775807
  br i1 %9, label %10, label %11

10:                                               ; preds = %3
  store i32 0, ptr %4, align 4
  br label %18

11:                                               ; preds = %3
  %12 = load ptr, ptr %6, align 8, !tbaa !11
  %13 = load ptr, ptr %5, align 8, !tbaa !56
  %14 = getelementptr inbounds nuw %struct.PACKET, ptr %13, i32 0, i32 0
  store ptr %12, ptr %14, align 8, !tbaa !123
  %15 = load i64, ptr %7, align 8, !tbaa !62
  %16 = load ptr, ptr %5, align 8, !tbaa !56
  %17 = getelementptr inbounds nuw %struct.PACKET, ptr %16, i32 0, i32 1
  store i64 %15, ptr %17, align 8, !tbaa !125
  store i32 1, ptr %4, align 4
  br label %18

18:                                               ; preds = %11, %10
  %19 = load i32, ptr %4, align 4
  ret i32 %19
}

; Function Attrs: nounwind uwtable
define internal void @noise_msg_callback(i32 noundef %0, i32 noundef %1, i32 noundef %2, ptr noundef %3, i64 noundef %4, ptr noundef %5, ptr noundef %6) #0 {
  %8 = alloca i32, align 4
  %9 = alloca i32, align 4
  %10 = alloca i32, align 4
  %11 = alloca ptr, align 8
  %12 = alloca i64, align 8
  %13 = alloca ptr, align 8
  %14 = alloca ptr, align 8
  %15 = alloca ptr, align 8
  %16 = alloca %struct.PACKET, align 8
  %17 = alloca i64, align 8
  %18 = alloca i32, align 4
  store i32 %0, ptr %8, align 4, !tbaa !13
  store i32 %1, ptr %9, align 4, !tbaa !13
  store i32 %2, ptr %10, align 4, !tbaa !13
  store ptr %3, ptr %11, align 8, !tbaa !56
  store i64 %4, ptr %12, align 8, !tbaa !62
  store ptr %5, ptr %13, align 8, !tbaa !31
  store ptr %6, ptr %14, align 8, !tbaa !56
  call void @llvm.lifetime.start.p0(i64 8, ptr %15) #8
  %19 = load ptr, ptr %14, align 8, !tbaa !56
  store ptr %19, ptr %15, align 8, !tbaa !63
  %20 = load i32, ptr %10, align 4, !tbaa !13
  %21 = icmp eq i32 %20, 514
  br i1 %21, label %22, label %48

22:                                               ; preds = %7
  call void @llvm.lifetime.start.p0(i64 16, ptr %16) #8
  call void @llvm.lifetime.start.p0(i64 8, ptr %17) #8
  %23 = load ptr, ptr %11, align 8, !tbaa !56
  %24 = load i64, ptr %12, align 8, !tbaa !62
  %25 = call i32 @PACKET_buf_init(ptr noundef %16, ptr noundef %23, i64 noundef %24)
  %26 = icmp ne i32 %25, 0
  br i1 %26, label %28, label %27

27:                                               ; preds = %22
  store i32 1, ptr %18, align 4
  br label %45

28:                                               ; preds = %22
  %29 = call i32 @ossl_quic_wire_peek_frame_header(ptr noundef %16, ptr noundef %17, ptr noundef null)
  %30 = icmp ne i32 %29, 0
  br i1 %30, label %32, label %31

31:                                               ; preds = %28
  store i32 1, ptr %18, align 4
  br label %45

32:                                               ; preds = %28
  %33 = load i64, ptr %17, align 8, !tbaa !62
  %34 = icmp eq i64 %33, 1
  br i1 %34, label %35, label %44

35:                                               ; preds = %32
  %36 = load ptr, ptr %15, align 8, !tbaa !63
  %37 = getelementptr inbounds nuw %struct.noise_args_data_st, ptr %36, i32 0, i32 0
  %38 = load ptr, ptr %37, align 8, !tbaa !65
  %39 = call i64 @BIO_ctrl(ptr noundef %38, i32 noundef 1001, i64 noundef 0, ptr noundef null)
  %40 = load ptr, ptr %15, align 8, !tbaa !63
  %41 = getelementptr inbounds nuw %struct.noise_args_data_st, ptr %40, i32 0, i32 1
  %42 = load ptr, ptr %41, align 8, !tbaa !66
  %43 = call i64 @BIO_ctrl(ptr noundef %42, i32 noundef 1001, i64 noundef 0, ptr noundef null)
  br label %44

44:                                               ; preds = %35, %32
  store i32 0, ptr %18, align 4
  br label %45

45:                                               ; preds = %44, %31, %27
  call void @llvm.lifetime.end.p0(i64 8, ptr %17) #8
  call void @llvm.lifetime.end.p0(i64 16, ptr %16) #8
  %46 = load i32, ptr %18, align 4
  switch i32 %46, label %69 [
    i32 0, label %47
  ]

47:                                               ; preds = %45
  br label %48

48:                                               ; preds = %47, %7
  %49 = load ptr, ptr %15, align 8, !tbaa !63
  %50 = getelementptr inbounds nuw %struct.noise_args_data_st, ptr %49, i32 0, i32 3
  %51 = load i32, ptr %50, align 8, !tbaa !67
  %52 = and i32 %51, 16
  %53 = icmp ne i32 %52, 0
  br i1 %53, label %54, label %68

54:                                               ; preds = %48
  %55 = load ptr, ptr %13, align 8, !tbaa !31
  %56 = call i32 @SSL_is_server(ptr noundef %55)
  %57 = icmp ne i32 %56, 0
  br i1 %57, label %68, label %58

58:                                               ; preds = %54
  %59 = load i32, ptr %8, align 4, !tbaa !13
  %60 = load i32, ptr %9, align 4, !tbaa !13
  %61 = load i32, ptr %10, align 4, !tbaa !13
  %62 = load ptr, ptr %11, align 8, !tbaa !56
  %63 = load i64, ptr %12, align 8, !tbaa !62
  %64 = load ptr, ptr %13, align 8, !tbaa !31
  %65 = load ptr, ptr %15, align 8, !tbaa !63
  %66 = getelementptr inbounds nuw %struct.noise_args_data_st, ptr %65, i32 0, i32 2
  %67 = load ptr, ptr %66, align 8, !tbaa !68
  call void @SSL_trace(i32 noundef %59, i32 noundef %60, i32 noundef %61, ptr noundef %62, i64 noundef %63, ptr noundef %64, ptr noundef %67)
  br label %68

68:                                               ; preds = %58, %54, %48
  store i32 0, ptr %18, align 4
  br label %69

69:                                               ; preds = %68, %45
  call void @llvm.lifetime.end.p0(i64 8, ptr %15) #8
  %70 = load i32, ptr %18, align 4
  switch i32 %70, label %72 [
    i32 0, label %71
    i32 1, label %71
  ]

71:                                               ; preds = %69, %69
  ret void

72:                                               ; preds = %69
  unreachable
}