; Function Attrs: nounwind uwtable
define internal void @noise_msg_callback(i32 noundef %0, i32 noundef %1, i32 noundef %2, ptr noundef %3, i64 noundef %4, ptr noundef %5, ptr noundef readonly captures(none) %6) #0 {
  %8 = alloca %struct.PACKET, align 8
  %9 = alloca i64, align 8
  %10 = icmp eq i32 %2, 514
  br i1 %10, label %11, label %26

11:                                               ; preds = %7
  call void @llvm.lifetime.start.p0(i64 16, ptr nonnull %8) #10
  call void @llvm.lifetime.start.p0(i64 8, ptr nonnull %9) #10
  %12 = icmp slt i64 %4, 0
  br i1 %12, label %.critedge, label %13

13:                                               ; preds = %11
  store ptr %3, ptr %8, align 8, !tbaa !47
  %14 = getelementptr inbounds nuw i8, ptr %8, i64 8
  store i64 %4, ptr %14, align 8, !tbaa !49
  %15 = call i32 @ossl_quic_wire_peek_frame_header(ptr noundef nonnull %8, ptr noundef nonnull %9, ptr noundef null) #10
  %.not15 = icmp eq i32 %15, 0
  br i1 %.not15, label %.critedge, label %16

16:                                               ; preds = %13
  %17 = load i64, ptr %9, align 8, !tbaa !46
  %18 = icmp eq i64 %17, 1
  br i1 %18, label %19, label %25

19:                                               ; preds = %16
  %20 = load ptr, ptr %6, align 8, !tbaa !50
  %21 = call i64 @BIO_ctrl(ptr noundef %20, i32 noundef 1001, i64 noundef 0, ptr noundef null) #10
  %22 = getelementptr inbounds nuw i8, ptr %6, i64 8
  %23 = load ptr, ptr %22, align 8, !tbaa !51
  %24 = call i64 @BIO_ctrl(ptr noundef %23, i32 noundef 1001, i64 noundef 0, ptr noundef null) #10
  br label %25

25:                                               ; preds = %16, %19
  call void @llvm.lifetime.end.p0(i64 8, ptr nonnull %9) #10
  call void @llvm.lifetime.end.p0(i64 16, ptr nonnull %8) #10
  br label %26

26:                                               ; preds = %25, %7
  %27 = getelementptr inbounds nuw i8, ptr %6, i64 24
  %28 = load i32, ptr %27, align 8, !tbaa !52
  %29 = and i32 %28, 16
  %.not16 = icmp eq i32 %29, 0
  br i1 %.not16, label %35, label %30

30:                                               ; preds = %26
  %31 = call i32 @SSL_is_server(ptr noundef %5) #10
  %.not17 = icmp eq i32 %31, 0
  br i1 %.not17, label %32, label %35

32:                                               ; preds = %30
  %33 = getelementptr inbounds nuw i8, ptr %6, i64 16
  %34 = load ptr, ptr %33, align 8, !tbaa !53
  call void @SSL_trace(i32 noundef %0, i32 noundef %1, i32 noundef %2, ptr noundef %3, i64 noundef %4, ptr noundef %5, ptr noundef %34) #10
  br label %35

.critedge:                                        ; preds = %11, %13
  call void @llvm.lifetime.end.p0(i64 8, ptr nonnull %9) #10
  call void @llvm.lifetime.end.p0(i64 16, ptr nonnull %8) #10
  br label %35

35:                                               ; preds = %26, %30, %32, %.critedge
  ret void
}